(lp0
I5
aI5
aI5
aI5
aI5
aI5
aI5
aI4
aI4
aI4
aI4
aI7
aI7
aI7
aI7
aI7
aI7
aI7
aI7
aI6
aI6
aI6
aI6
aI6
aI6
aI6
aI6
aI1
aI1
aI1
aI1
aI1
aI-2
aI1
aI1
aI1
aI3
aI3
aI3
aI3
aI3
aI3
aI3
aI-2
aI-2
aI-2
aI-2
aI-2
aI-2
aI3
aI2
aI2
aI-2
aI2
aI2
aI-2
aI-2
aI2
aI2
aI-2
aI17
aI17
aI18
aI18
aI17
aI19
aI18
aI17
aI17
aI17
aI17
aI19
aI19
aI19
aI19
aI19
aI20
aI20
aI20
aI20
aI20
aI20
aI22
aI15
aI15
aI15
aI21
aI21
aI21
aI16
aI16
aI16
aI15
aI15
aI15
aI15
aI15
aI11
aI11
aI11
aI11
aI11
aI11
aI11
aI11
aI12
aI12
aI12
aI14
aI13
aI8
aI8
aI8
aI10
aI10
aI10
aI10
aI10
aI9
aI9
aI9
aI9
aI9
aI9
aI9
aI9
aI33
aI33
aI33
aI33
aI33
aI33
aI33
aI33
aI33
aI32
aI32
aI32
aI34
aI32
aI34
aI34
aI34
aI34
aI34
aI34
aI34
aI44
aI34
aI35
aI39
aI39
aI39
aI38
aI38
aI39
aI39
aI39
aI39
aI39
aI39
aI39
aI39
aI39
aI37
aI37
aI37
aI37
aI36
aI36
aI37
aI37
aI37
aI37
aI37
aI37
aI37
aI43
aI43
aI43
aI43
aI43
aI43
aI43
aI43
aI43
aI43
aI43
aI43
aI43
aI43
aI43
aI43
aI43
aI43
aI43
aI40
aI40
aI40
aI40
aI40
aI40
aI40
aI40
aI40
aI40
aI40
aI40
aI40
aI40
aI40
aI40
aI42
aI42
aI42
aI42
aI42
aI42
aI42
aI42
aI42
aI42
aI42
aI42
aI41
aI41
aI41
aI41
aI41
aI41
aI41
aI23
aI23
aI23
aI23
aI23
aI23
aI23
aI23
aI23
aI23
aI23
aI23
aI23
aI23
aI23
aI23
aI23
aI23
aI23
aI23
aI25
aI24
aI24
aI24
aI24
aI24
aI24
aI24
aI24
aI24
aI25
aI25
aI25
aI31
aI25
aI31
aI31
aI31
aI31
aI31
aI31
aI31
aI31
aI31
aI30
aI30
aI27
aI29
aI29
aI29
aI29
aI29
aI28
aI28
aI28
aI27
aI27
aI27
aI27
aI27
aI27
aI26
aI26
aI26
aI26
aI26
aI26
aI26
aI26
a.